target datalayout = "e-m:e-p270:32:32-p271:32:32-p272:64:64-i64:64-i128:128-f80:128-n8:16:32:64-S128"
target triple = "x86_64-pc-linux-gnu"

%struct.sqlite3_pcache_methods2 = type { i32, ptr, ptr, ptr, ptr, ptr, ptr, ptr, ptr, ptr, ptr, ptr, ptr }

@pcacheBase = internal global %struct.sqlite3_pcache_methods2 zeroinitializer, align 8
@pcachetraceOut = internal global ptr null, align 8
@.str.145 = private unnamed_addr constant [32 x i8] c"PCACHETRACE: xCreate(%d,%d,%d)\0A\00", align 1
@.str.146 = private unnamed_addr constant [38 x i8] c"PCACHETRACE: xCreate(%d,%d,%d) -> %p\0A\00", align 1

; Function Attrs: nounwind uwtable
define internal ptr @pcachetraceCreate(i32 noundef %0, i32 noundef %1, i32 noundef %2) #0 {
  %4 = alloca i32, align 4
  %5 = alloca i32, align 4
  %6 = alloca i32, align 4
  %7 = alloca ptr, align 8
  store i32 %0, ptr %4, align 4, !tbaa !3
  store i32 %1, ptr %5, align 4, !tbaa !3
  store i32 %2, ptr %6, align 4, !tbaa !3
  call void @llvm.lifetime.start.p0(i64 8, ptr %7) #14
  %8 = load ptr, ptr @pcachetraceOut, align 8, !tbaa !12
  %9 = icmp ne ptr %8, null
  br i1 %9, label %10, label %16

10:                                               ; preds = %3
  %11 = load ptr, ptr @pcachetraceOut, align 8, !tbaa !12
  %12 = load i32, ptr %4, align 4, !tbaa !3
  %13 = load i32, ptr %5, align 4, !tbaa !3
  %14 = load i32, ptr %6, align 4, !tbaa !3
  %15 = call i32 (ptr, ptr, ...) @fprintf(ptr noundef %11, ptr noundef @.str.145, i32 noundef %12, i32 noundef %13, i32 noundef %14) #14
  br label %16

16:                                               ; preds = %10, %3
  %17 = load ptr, ptr getelementptr inbounds nuw (%struct.sqlite3_pcache_methods2, ptr @pcacheBase, i32 0, i32 4), align 8, !tbaa !548
  %18 = load i32, ptr %4, align 4, !tbaa !3
  %19 = load i32, ptr %5, align 4, !tbaa !3
  %20 = load i32, ptr %6, align 4, !tbaa !3
  %21 = call ptr %17(i32 noundef %18, i32 noundef %19, i32 noundef %20)
  store ptr %21, ptr %7, align 8, !tbaa !549
  %22 = load ptr, ptr @pcachetraceOut, align 8, !tbaa !12
  %23 = icmp ne ptr %22, null
  br i1 %23, label %24, label %31

24:                                               ; preds = %16
  %25 = load ptr, ptr @pcachetraceOut, align 8, !tbaa !12
  %26 = load i32, ptr %4, align 4, !tbaa !3
  %27 = load i32, ptr %5, align 4, !tbaa !3
  %28 = load i32, ptr %6, align 4, !tbaa !3
  %29 = load ptr, ptr %7, align 8, !tbaa !549
  %30 = call i32 (ptr, ptr, ...) @fprintf(ptr noundef %25, ptr noundef @.str.146, i32 noundef %26, i32 noundef %27, i32 noundef %28, ptr noundef %29) #14
  br label %31

31:                                               ; preds = %24, %16
  %32 = load ptr, ptr %7, align 8, !tbaa !549
  call void @llvm.lifetime.end.p0(i64 8, ptr %7) #14
  ret ptr %32
}