; Function Attrs: nounwind uwtable
define internal ptr @pcachetraceCreate(i32 noundef %0, i32 noundef %1, i32 noundef %2) #2 {
  %4 = load ptr, ptr @pcachetraceOut, align 8, !tbaa !14
  %.not = icmp eq ptr %4, null
  br i1 %.not, label %7, label %5

5:                                                ; preds = %3
  %6 = tail call i32 (ptr, ptr, ...) @fprintf(ptr noundef nonnull %4, ptr noundef nonnull @.str.145, i32 noundef %0, i32 noundef %1, i32 noundef %2) #43
  br label %7

7:                                                ; preds = %5, %3
  %8 = load ptr, ptr getelementptr inbounds nuw (i8, ptr @pcacheBase, i64 32), align 8, !tbaa !681
  %9 = tail call ptr %8(i32 noundef %0, i32 noundef %1, i32 noundef %2) #43
  %10 = load ptr, ptr @pcachetraceOut, align 8, !tbaa !14
  %.not11 = icmp eq ptr %10, null
  br i1 %.not11, label %13, label %11

11:                                               ; preds = %7
  %12 = tail call i32 (ptr, ptr, ...) @fprintf(ptr noundef nonnull %10, ptr noundef nonnull @.str.146, i32 noundef %0, i32 noundef %1, i32 noundef %2, ptr noundef %9) #43
  br label %13

13:                                               ; preds = %11, %7
  ret ptr %9
}